target datalayout = "e-m:e-p270:32:32-p271:32:32-p272:64:64-i64:64-i128:128-f80:128-n8:16:32:64-S128"
target triple = "x86_64-pc-linux-gnu"

%union.pthread_mutex_t = type { %struct.__pthread_mutex_s }
%struct.__pthread_mutex_s = type { i32, i32, i32, i32, i32, i16, i16, %struct.__pthread_internal_list }
%struct.__pthread_internal_list = type { ptr, ptr }
%struct.ccan_list_head = type { %struct.ccan_list_node }
%struct.ccan_list_node = type { ptr, ptr }
%struct.rb_thread_struct = type { %struct.ccan_list_node, i64, ptr, ptr, ptr, ptr, %struct.rb_thread_sched_item, i8, i32, i64, ptr, i64, i64, i8, i8, i32, ptr, i64, i64, i64, i64, %union.pthread_mutex_t, %struct.rb_unblock_callback, i64, ptr, %struct.ccan_list_head, ptr, %union.anon, i32, i64, ptr, i64, i32, i64, ptr, %struct.rb_ext_config }
%struct.rb_thread_sched_item = type { %struct.anon.7, %struct.rb_thread_sched_waiting, i8, i8, ptr, ptr }
%struct.anon.7 = type { %struct.ccan_list_node, %struct.ccan_list_node, %struct.ccan_list_node, %struct.ccan_list_node, %struct.ccan_list_node }
%struct.rb_thread_sched_waiting = type { i32, %struct.anon.8, %struct.ccan_list_node }
%struct.anon.8 = type { i64, i32, i32 }
%struct.rb_unblock_callback = type { ptr, ptr }
%union.anon = type { %struct.anon.9 }
%struct.anon.9 = type { i64, i64, i32 }
%struct.rb_ext_config = type { i8 }
%struct.rb_interrupt_exec_task = type { %struct.ccan_list_node, ptr, ptr, i32 }

; Function Attrs: inlinehint nounwind sspstrong uwtable
define internal ptr @ccan_list_node_from_off_(ptr noundef %0, i64 noundef %1) #1 {
  %3 = alloca ptr, align 8
  %4 = alloca i64, align 8
  store ptr %0, ptr %3, align 8, !tbaa !14
  store i64 %1, ptr %4, align 8, !tbaa !22
  %5 = load ptr, ptr %3, align 8, !tbaa !14
  %6 = load i64, ptr %4, align 8, !tbaa !22
  %7 = getelementptr i8, ptr %5, i64 %6
  ret ptr %7
}

; Function Attrs: inlinehint nounwind sspstrong uwtable
define internal ptr @ccan_list_node_to_off_(ptr noundef %0, i64 noundef %1) #1 {
  %3 = alloca ptr, align 8
  %4 = alloca i64, align 8
  store ptr %0, ptr %3, align 8, !tbaa !130
  store i64 %1, ptr %4, align 8, !tbaa !22
  %5 = load ptr, ptr %3, align 8, !tbaa !130
  %6 = load i64, ptr %4, align 8, !tbaa !22
  %7 = sub i64 0, %6
  %8 = getelementptr i8, ptr %5, i64 %7
  ret ptr %8
}

; Function Attrs: nounwind sspstrong uwtable
define hidden void @rb_threadptr_interrupt_exec_task_mark(ptr noundef %0) #0 {
  %2 = alloca ptr, align 8
  %3 = alloca ptr, align 8
  store ptr %0, ptr %2, align 8, !tbaa !12
  call void @llvm.lifetime.start.p0(i64 8, ptr %3) #16
  store ptr null, ptr %3, align 8, !tbaa !289
  %4 = load ptr, ptr %2, align 8, !tbaa !12
  %5 = getelementptr inbounds nuw %struct.rb_thread_struct, ptr %4, i32 0, i32 25
  %6 = getelementptr inbounds nuw %struct.ccan_list_head, ptr %5, i32 0, i32 0
  %7 = getelementptr inbounds nuw %struct.ccan_list_node, ptr %6, i32 0, i32 0
  %8 = load ptr, ptr %7, align 8, !tbaa !60
  %9 = call ptr @ccan_list_node_to_off_(ptr noundef %8, i64 noundef 0)
  store ptr %9, ptr %3, align 8, !tbaa !289
  br label %10

10:                                               ; preds = %29, %1
  %11 = load ptr, ptr %3, align 8, !tbaa !289
  %12 = call ptr @ccan_list_node_from_off_(ptr noundef %11, i64 noundef 0)
  %13 = load ptr, ptr %2, align 8, !tbaa !12
  %14 = getelementptr inbounds nuw %struct.rb_thread_struct, ptr %13, i32 0, i32 25
  %15 = getelementptr inbounds nuw %struct.ccan_list_head, ptr %14, i32 0, i32 0
  %16 = icmp ne ptr %12, %15
  br i1 %16, label %17, label %35

17:                                               ; preds = %10
  %18 = load ptr, ptr %3, align 8, !tbaa !289
  %19 = getelementptr inbounds nuw %struct.rb_interrupt_exec_task, ptr %18, i32 0, i32 3
  %20 = load i32, ptr %19, align 8, !tbaa !424
  %21 = and i32 %20, 1
  %22 = icmp ne i32 %21, 0
  br i1 %22, label %23, label %28

23:                                               ; preds = %17
  %24 = load ptr, ptr %3, align 8, !tbaa !289
  %25 = getelementptr inbounds nuw %struct.rb_interrupt_exec_task, ptr %24, i32 0, i32 2
  %26 = load ptr, ptr %25, align 8, !tbaa !293
  %27 = ptrtoint ptr %26 to i64
  call void @rb_gc_mark(i64 noundef %27)
  br label %28

28:                                               ; preds = %23, %17
  br label %29

29:                                               ; preds = %28
  %30 = load ptr, ptr %3, align 8, !tbaa !289
  %31 = call ptr @ccan_list_node_from_off_(ptr noundef %30, i64 noundef 0)
  %32 = getelementptr inbounds nuw %struct.ccan_list_node, ptr %31, i32 0, i32 0
  %33 = load ptr, ptr %32, align 8, !tbaa !125
  %34 = call ptr @ccan_list_node_to_off_(ptr noundef %33, i64 noundef 0)
  store ptr %34, ptr %3, align 8, !tbaa !289
  br label %10, !llvm.loop !425

35:                                               ; preds = %10
  call void @llvm.lifetime.end.p0(i64 8, ptr %3) #16
  ret void
}