; Function Attrs: nounwind sspstrong uwtable
define hidden void @rb_threadptr_interrupt_exec_task_mark(ptr noundef readonly captures(address) %0) local_unnamed_addr #0 {
  %2 = getelementptr inbounds nuw i8, ptr %0, i64 360
  %.07 = load ptr, ptr %2, align 8, !tbaa !84
  %.not8 = icmp eq ptr %.07, %2
  br i1 %.not8, label %._crit_edge, label %.lr.ph

.lr.ph:                                           ; preds = %1, %10
  %.09 = phi ptr [ %.0, %10 ], [ %.07, %1 ]
  %3 = getelementptr inbounds nuw i8, ptr %.09, i64 32
  %4 = load i32, ptr %3, align 8, !tbaa !404
  %5 = and i32 %4, 1
  %.not6 = icmp eq i32 %5, 0
  br i1 %.not6, label %10, label %6

6:                                                ; preds = %.lr.ph
  %7 = getelementptr inbounds nuw i8, ptr %.09, i64 24
  %8 = load ptr, ptr %7, align 8, !tbaa !270
  %9 = ptrtoint ptr %8 to i64
  tail call void @rb_gc_mark(i64 noundef %9) #17
  br label %10

10:                                               ; preds = %.lr.ph, %6
  %.0 = load ptr, ptr %.09, align 8, !tbaa !84
  %.not = icmp eq ptr %.0, %2
  br i1 %.not, label %._crit_edge, label %.lr.ph, !llvm.loop !405

._crit_edge:                                      ; preds = %10, %1
  ret void
}